target datalayout = "e-m:e-p270:32:32-p271:32:32-p272:64:64-i64:64-i128:128-f80:128-n8:16:32:64-S128"
target triple = "x86_64-pc-linux-gnu"

%"struct.icu_77::FormattedStringBuilder::Field" = type { i8 }
%"class.icu_77::RelativeDateTimeCacheData" = type { %"class.icu_77::SharedObject", [3 x [15 x [6 x %"class.icu_77::UnicodeString"]]], [3 x [15 x [2 x [8 x ptr]]]], %"class.icu_77::UnicodeString", [3 x i32], ptr }
%"class.icu_77::SharedObject" = type { %"class.icu_77::UObject", i32, %"struct.std::atomic", ptr }
%"class.icu_77::UObject" = type { ptr }
%"struct.std::atomic" = type { %"struct.std::__atomic_base" }
%"struct.std::__atomic_base" = type { i32 }
%"class.icu_77::UnicodeString" = type { %"class.icu_77::Replaceable", %"union.icu_77::UnicodeString::StackBufferOrFields" }
%"class.icu_77::Replaceable" = type { %"class.icu_77::UObject" }
%"union.icu_77::UnicodeString::StackBufferOrFields" = type { %struct.anon.0, [32 x i8] }
%struct.anon.0 = type { i16, i32, i32, ptr }
%"class.icu_77::Locale" = type <{ %"class.icu_77::UObject", [12 x i8], [6 x i8], [4 x i8], [2 x i8], i32, [4 x i8], ptr, [157 x i8], [3 x i8], ptr, i8, [7 x i8] }>
%"class.icu_77::FormattedValue" = type { ptr }
%"class.icu_77::RelativeDateTimeFormatter" = type { %"class.icu_77::UObject", ptr, ptr, ptr, i32, i32, ptr, %"class.icu_77::Locale" }
%"class.icu_77::SharedNumberFormat" = type { %"class.icu_77::SharedObject", ptr }
%"class.icu_77::FormattedStringBuilder" = type { i8, %"union.icu_77::FormattedStringBuilder::ValueOrHeapArray", %"union.icu_77::FormattedStringBuilder::ValueOrHeapArray.3", i32, i32 }
%"union.icu_77::FormattedStringBuilder::ValueOrHeapArray" = type { %struct.anon.2, [64 x i8] }
%struct.anon.2 = type { ptr, i32 }
%"union.icu_77::FormattedStringBuilder::ValueOrHeapArray.3" = type { %struct.anon.4, [24 x i8] }
%struct.anon.4 = type { ptr, i32 }
%"class.icu_77::MaybeStackArray.5" = type { ptr, i32, i8, [8 x %"struct.icu_77::SpanInfo"] }
%"struct.icu_77::SpanInfo" = type { i32, i32, i32, i32 }
%"class.icu_77::number::impl::SimpleModifier" = type { %"class.icu_77::number::impl::Modifier", %"class.icu_77::UnicodeString", %"struct.icu_77::FormattedStringBuilder::Field", i8, i32, i32, i32, %"struct.icu_77::number::impl::Modifier::Parameters" }
%"class.icu_77::number::impl::Modifier" = type { ptr }
%"struct.icu_77::number::impl::Modifier::Parameters" = type { ptr, i32, i32 }
%"class.icu_77::SharedPluralRules" = type { %"class.icu_77::SharedObject", ptr }
%"class.icu_77::FormattedValueStringBuilderImpl" = type <{ %"class.icu_77::FormattedValue", %"class.icu_77::FormattedStringBuilder", %"struct.icu_77::FormattedStringBuilder::Field", [7 x i8], %"class.icu_77::MaybeStackArray.5", i32, [4 x i8] }>

@_ZN6icu_77L16kRDTLiteralFieldE = internal constant %"struct.icu_77::FormattedStringBuilder::Field" { i8 64 }, align 1
@_ZTVN6icu_776number4impl14SimpleModifierE = external unnamed_addr constant { [11 x ptr] }, align 8

; Function Attrs: inlinehint mustprogress nounwind uwtable
define linkonce_odr void @_ZN6icu_776number4impl14SimpleModifierD2Ev(ptr noundef nonnull align 8 dereferenceable(104) %0) unnamed_addr #2 comdat align 2 {
  %2 = alloca ptr, align 8
  store ptr %0, ptr %2, align 8, !tbaa !141
  %3 = load ptr, ptr %2, align 8
  store ptr getelementptr inbounds inrange(-16, 72) ({ [11 x ptr] }, ptr @_ZTVN6icu_776number4impl14SimpleModifierE, i32 0, i32 0, i32 2), ptr %3, align 8, !tbaa !25
  %4 = getelementptr inbounds nuw %"class.icu_77::number::impl::SimpleModifier", ptr %3, i32 0, i32 1
  call void @_ZN6icu_7713UnicodeStringD1Ev(ptr noundef nonnull align 8 dereferenceable(64) %4) #12
  call void @_ZN6icu_776number4impl8ModifierD2Ev(ptr noundef nonnull align 8 dereferenceable(8) %3) #12
  ret void
}

; Function Attrs: mustprogress nounwind uwtable
define noundef ptr @_ZNK6icu_7725RelativeDateTimeCacheData32getRelativeDateTimeUnitFormatterEi21URelativeDateTimeUnitii(ptr noundef nonnull align 8 dereferenceable(23152) %0, i32 noundef %1, i32 noundef %2, i32 noundef %3, i32 noundef %4) #0 align 2 {
  %6 = alloca ptr, align 8
  %7 = alloca ptr, align 8
  %8 = alloca i32, align 4
  %9 = alloca i32, align 4
  %10 = alloca i32, align 4
  %11 = alloca i32, align 4
  %12 = alloca i32, align 4
  %13 = alloca i32, align 4
  store ptr %0, ptr %7, align 8, !tbaa !23
  store i32 %1, ptr %8, align 4, !tbaa !14
  store i32 %2, ptr %9, align 4, !tbaa !52
  store i32 %3, ptr %10, align 4, !tbaa !14
  store i32 %4, ptr %11, align 4, !tbaa !14
  %14 = load ptr, ptr %7, align 8
  br label %15

15:                                               ; preds = %5, %64
  call void @llvm.lifetime.start.p0(i64 4, ptr %12) #12
  %16 = load i32, ptr %8, align 4, !tbaa !14
  store i32 %16, ptr %12, align 4, !tbaa !14
  br label %17

17:                                               ; preds = %54, %15
  %18 = getelementptr inbounds nuw %"class.icu_77::RelativeDateTimeCacheData", ptr %14, i32 0, i32 2
  %19 = load i32, ptr %12, align 4, !tbaa !14
  %20 = sext i32 %19 to i64
  %21 = getelementptr inbounds [3 x [15 x [2 x [8 x ptr]]]], ptr %18, i64 0, i64 %20
  %22 = load i32, ptr %9, align 4, !tbaa !52
  %23 = zext i32 %22 to i64
  %24 = getelementptr inbounds nuw [15 x [2 x [8 x ptr]]], ptr %21, i64 0, i64 %23
  %25 = load i32, ptr %10, align 4, !tbaa !14
  %26 = sext i32 %25 to i64
  %27 = getelementptr inbounds [2 x [8 x ptr]], ptr %24, i64 0, i64 %26
  %28 = load i32, ptr %11, align 4, !tbaa !14
  %29 = sext i32 %28 to i64
  %30 = getelementptr inbounds [8 x ptr], ptr %27, i64 0, i64 %29
  %31 = load ptr, ptr %30, align 8, !tbaa !27
  %32 = icmp ne ptr %31, null
  br i1 %32, label %33, label %48

33:                                               ; preds = %17
  %34 = getelementptr inbounds nuw %"class.icu_77::RelativeDateTimeCacheData", ptr %14, i32 0, i32 2
  %35 = load i32, ptr %12, align 4, !tbaa !14
  %36 = sext i32 %35 to i64
  %37 = getelementptr inbounds [3 x [15 x [2 x [8 x ptr]]]], ptr %34, i64 0, i64 %36
  %38 = load i32, ptr %9, align 4, !tbaa !52
  %39 = zext i32 %38 to i64
  %40 = getelementptr inbounds nuw [15 x [2 x [8 x ptr]]], ptr %37, i64 0, i64 %39
  %41 = load i32, ptr %10, align 4, !tbaa !14
  %42 = sext i32 %41 to i64
  %43 = getelementptr inbounds [2 x [8 x ptr]], ptr %40, i64 0, i64 %42
  %44 = load i32, ptr %11, align 4, !tbaa !14
  %45 = sext i32 %44 to i64
  %46 = getelementptr inbounds [8 x ptr], ptr %43, i64 0, i64 %45
  %47 = load ptr, ptr %46, align 8, !tbaa !27
  store ptr %47, ptr %6, align 8
  store i32 1, ptr %13, align 4
  br label %62

48:                                               ; preds = %17
  %49 = getelementptr inbounds nuw %"class.icu_77::RelativeDateTimeCacheData", ptr %14, i32 0, i32 4
  %50 = load i32, ptr %12, align 4, !tbaa !14
  %51 = sext i32 %50 to i64
  %52 = getelementptr inbounds [3 x i32], ptr %49, i64 0, i64 %51
  %53 = load i32, ptr %52, align 4, !tbaa !14
  store i32 %53, ptr %12, align 4, !tbaa !14
  br label %54

54:                                               ; preds = %48
  %55 = load i32, ptr %12, align 4, !tbaa !14
  %56 = icmp ne i32 %55, -1
  br i1 %56, label %17, label %57, !llvm.loop !54

57:                                               ; preds = %54
  %58 = load i32, ptr %11, align 4, !tbaa !14
  %59 = icmp eq i32 %58, 5
  br i1 %59, label %60, label %61

60:                                               ; preds = %57
  store i32 3, ptr %13, align 4
  br label %62

61:                                               ; preds = %57
  store i32 5, ptr %11, align 4, !tbaa !14
  store i32 0, ptr %13, align 4
  br label %62

62:                                               ; preds = %61, %60, %33
  call void @llvm.lifetime.end.p0(i64 4, ptr %12) #12
  %63 = load i32, ptr %13, align 4
  switch i32 %63, label %68 [
    i32 0, label %64
    i32 1, label %66
    i32 3, label %65
  ]

64:                                               ; preds = %62
  br label %15, !llvm.loop !55

65:                                               ; preds = %62
  store ptr null, ptr %6, align 8
  br label %66

66:                                               ; preds = %65, %62
  %67 = load ptr, ptr %6, align 8
  ret ptr %67

68:                                               ; preds = %62
  unreachable
}

; Function Attrs: inlinehint mustprogress nounwind uwtable
define linkonce_odr noundef nonnull align 8 dereferenceable(136) ptr @_ZN6icu_7731FormattedValueStringBuilderImpl12getStringRefEv(ptr noundef nonnull align 8 dereferenceable(300) %0) #2 comdat align 2 {
  %2 = alloca ptr, align 8
  store ptr %0, ptr %2, align 8, !tbaa !139
  %3 = load ptr, ptr %2, align 8
  %4 = getelementptr inbounds nuw %"class.icu_77::FormattedValueStringBuilderImpl", ptr %3, i32 0, i32 1
  ret ptr %4
}

; Function Attrs: mustprogress nounwind uwtable
define linkonce_odr noundef nonnull align 8 dereferenceable(28) ptr @_ZNK6icu_7717SharedPluralRulesdeEv(ptr noundef nonnull align 8 dereferenceable(32) %0) #0 comdat align 2 {
  %2 = alloca ptr, align 8
  store ptr %0, ptr %2, align 8, !tbaa !114
  %3 = load ptr, ptr %2, align 8
  %4 = getelementptr inbounds nuw %"class.icu_77::SharedPluralRules", ptr %3, i32 0, i32 1
  %5 = load ptr, ptr %4, align 8, !tbaa !136
  ret ptr %5
}

; Function Attrs: mustprogress nounwind uwtable
define linkonce_odr noundef nonnull align 8 dereferenceable(60) ptr @_ZNK6icu_7718SharedNumberFormatdeEv(ptr noundef nonnull align 8 dereferenceable(32) %0) #0 comdat align 2 {
  %2 = alloca ptr, align 8
  store ptr %0, ptr %2, align 8, !tbaa !115
  %3 = load ptr, ptr %2, align 8
  %4 = getelementptr inbounds nuw %"class.icu_77::SharedNumberFormat", ptr %3, i32 0, i32 1
  %5 = load ptr, ptr %4, align 8, !tbaa !128
  ret ptr %5
}

; Function Attrs: mustprogress nounwind uwtable
define linkonce_odr noundef zeroext i1 @_ZSt7signbitd(double noundef %0) #0 comdat {
  %2 = alloca double, align 8
  store double %0, ptr %2, align 8, !tbaa !130
  %3 = load double, ptr %2, align 8, !tbaa !130
  %4 = bitcast double %3 to i64
  %5 = icmp slt i64 %4, 0
  ret i1 %5
}

; Function Attrs: inlinehint mustprogress nounwind uwtable
define internal noundef signext i8 @_ZL9U_FAILURE10UErrorCode(i32 noundef %0) #2 {
  %2 = alloca i32, align 4
  store i32 %0, ptr %2, align 4, !tbaa !15
  %3 = load i32, ptr %2, align 4, !tbaa !15
  %4 = icmp sgt i32 %3, 0
  %5 = zext i1 %4 to i8
  ret i8 %5
}

; Function Attrs: mustprogress uwtable
define void @_ZNK6icu_7725RelativeDateTimeFormatter17formatNumericImplEd21URelativeDateTimeUnitRNS_29FormattedRelativeDateTimeDataER10UErrorCode(ptr noundef nonnull align 8 dereferenceable(272) %0, double noundef %1, i32 noundef %2, ptr noundef nonnull align 8 dereferenceable(300) %3, ptr noundef nonnull align 4 dereferenceable(4) %4) #1 align 2 personality ptr @__gxx_personality_v0 {
  %6 = alloca ptr, align 8
  %7 = alloca double, align 8
  %8 = alloca i32, align 4
  %9 = alloca ptr, align 8
  %10 = alloca ptr, align 8
  %11 = alloca i32, align 4
  %12 = alloca i32, align 4
  %13 = alloca i32, align 4
  %14 = alloca i32, align 4
  %15 = alloca ptr, align 8
  %16 = alloca %"class.icu_77::number::impl::SimpleModifier", align 8
  %17 = alloca %"struct.icu_77::FormattedStringBuilder::Field", align 1
  %18 = alloca ptr, align 8
  %19 = alloca i32, align 4
  store ptr %0, ptr %6, align 8, !tbaa !94
  store double %1, ptr %7, align 8, !tbaa !130
  store i32 %2, ptr %8, align 4, !tbaa !52
  store ptr %3, ptr %9, align 8, !tbaa !80
  store ptr %4, ptr %10, align 8, !tbaa !22
  %20 = load ptr, ptr %6, align 8
  %21 = load ptr, ptr %10, align 8, !tbaa !22
  %22 = load i32, ptr %21, align 4, !tbaa !15
  %23 = call noundef signext i8 @_ZL9U_FAILURE10UErrorCode(i32 noundef %22)
  %24 = icmp ne i8 %23, 0
  br i1 %24, label %25, label %26

25:                                               ; preds = %5
  br label %99

26:                                               ; preds = %5
  %27 = load i32, ptr %8, align 4, !tbaa !52
  %28 = icmp slt i32 %27, 0
  br i1 %28, label %32, label %29

29:                                               ; preds = %26
  %30 = load i32, ptr %8, align 4, !tbaa !52
  %31 = icmp sle i32 15, %30
  br i1 %31, label %32, label %34

32:                                               ; preds = %29, %26
  %33 = load ptr, ptr %10, align 8, !tbaa !22
  store i32 1, ptr %33, align 4, !tbaa !15
  br label %99

34:                                               ; preds = %29
  call void @llvm.lifetime.start.p0(i64 4, ptr %11) #12
  store i32 3, ptr %11, align 4, !tbaa !44
  %35 = load double, ptr %7, align 8, !tbaa !130
  %36 = call noundef zeroext i1 @_ZSt7signbitd(double noundef %35)
  br i1 %36, label %37, label %40

37:                                               ; preds = %34
  store i32 1, ptr %11, align 4, !tbaa !44
  %38 = load double, ptr %7, align 8, !tbaa !130
  %39 = fneg double %38
  store double %39, ptr %7, align 8, !tbaa !130
  br label %40

40:                                               ; preds = %37, %34
  %41 = load i32, ptr %11, align 4, !tbaa !44
  %42 = icmp ne i32 %41, 1
  br i1 %42, label %43, label %48

43:                                               ; preds = %40
  %44 = load i32, ptr %11, align 4, !tbaa !44
  %45 = icmp ne i32 %44, 3
  br i1 %45, label %46, label %48

46:                                               ; preds = %43
  %47 = load ptr, ptr %10, align 8, !tbaa !22
  store i32 1, ptr %47, align 4, !tbaa !15
  store i32 1, ptr %12, align 4
  br label %97

48:                                               ; preds = %43, %40
  call void @llvm.lifetime.start.p0(i64 4, ptr %13) #12
  %49 = load i32, ptr %11, align 4, !tbaa !44
  %50 = icmp eq i32 %49, 3
  %51 = select i1 %50, i32 1, i32 0
  store i32 %51, ptr %13, align 4, !tbaa !14
  call void @llvm.lifetime.start.p0(i64 4, ptr %14) #12
  %52 = load double, ptr %7, align 8, !tbaa !130
  %53 = getelementptr inbounds nuw %"class.icu_77::RelativeDateTimeFormatter", ptr %20, i32 0, i32 2
  %54 = load ptr, ptr %53, align 8, !tbaa !103
  %55 = call noundef nonnull align 8 dereferenceable(60) ptr @_ZNK6icu_7718SharedNumberFormatdeEv(ptr noundef nonnull align 8 dereferenceable(32) %54)
  %56 = getelementptr inbounds nuw %"class.icu_77::RelativeDateTimeFormatter", ptr %20, i32 0, i32 3
  %57 = load ptr, ptr %56, align 8, !tbaa !104
  %58 = call noundef nonnull align 8 dereferenceable(28) ptr @_ZNK6icu_7717SharedPluralRulesdeEv(ptr noundef nonnull align 8 dereferenceable(32) %57)
  %59 = load ptr, ptr %9, align 8, !tbaa !80
  %60 = call noundef nonnull align 8 dereferenceable(136) ptr @_ZN6icu_7731FormattedValueStringBuilderImpl12getStringRefEv(ptr noundef nonnull align 8 dereferenceable(300) %59)
  %61 = load ptr, ptr %10, align 8, !tbaa !22
  call void @_ZN6icu_7717QuantityFormatter15formatAndSelectEdRKNS_12NumberFormatERKNS_11PluralRulesERNS_22FormattedStringBuilderERNS_14StandardPlural4FormER10UErrorCode(double noundef %52, ptr noundef nonnull align 8 dereferenceable(60) %55, ptr noundef nonnull align 8 dereferenceable(28) %58, ptr noundef nonnull align 8 dereferenceable(136) %60, ptr noundef nonnull align 4 dereferenceable(4) %14, ptr noundef nonnull align 4 dereferenceable(4) %61)
  %62 = load ptr, ptr %10, align 8, !tbaa !22
  %63 = load i32, ptr %62, align 4, !tbaa !15
  %64 = call noundef signext i8 @_ZL9U_FAILURE10UErrorCode(i32 noundef %63)
  %65 = icmp ne i8 %64, 0
  br i1 %65, label %66, label %67

66:                                               ; preds = %48
  store i32 1, ptr %12, align 4
  br label %96

67:                                               ; preds = %48
  call void @llvm.lifetime.start.p0(i64 8, ptr %15) #12
  %68 = getelementptr inbounds nuw %"class.icu_77::RelativeDateTimeFormatter", ptr %20, i32 0, i32 1
  %69 = load ptr, ptr %68, align 8, !tbaa !96
  %70 = getelementptr inbounds nuw %"class.icu_77::RelativeDateTimeFormatter", ptr %20, i32 0, i32 4
  %71 = load i32, ptr %70, align 8, !tbaa !105
  %72 = load i32, ptr %8, align 4, !tbaa !52
  %73 = load i32, ptr %13, align 4, !tbaa !14
  %74 = load i32, ptr %14, align 4, !tbaa !133
  %75 = call noundef ptr @_ZNK6icu_7725RelativeDateTimeCacheData32getRelativeDateTimeUnitFormatterEi21URelativeDateTimeUnitii(ptr noundef nonnull align 8 dereferenceable(23152) %69, i32 noundef %71, i32 noundef %72, i32 noundef %73, i32 noundef %74)
  store ptr %75, ptr %15, align 8, !tbaa !27
  %76 = load ptr, ptr %15, align 8, !tbaa !27
  %77 = icmp eq ptr %76, null
  br i1 %77, label %78, label %80

78:                                               ; preds = %67
  %79 = load ptr, ptr %10, align 8, !tbaa !22
  store i32 3, ptr %79, align 4, !tbaa !15
  store i32 1, ptr %12, align 4
  br label %95

80:                                               ; preds = %67
  call void @llvm.lifetime.start.p0(i64 104, ptr %16) #12
  %81 = load ptr, ptr %15, align 8, !tbaa !27
  call void @llvm.memcpy.p0.p0.i64(ptr align 1 %17, ptr align 1 @_ZN6icu_77L16kRDTLiteralFieldE, i64 1, i1 false), !tbaa.struct !135
  %82 = getelementptr inbounds nuw %"struct.icu_77::FormattedStringBuilder::Field", ptr %17, i32 0, i32 0
  %83 = load i8, ptr %82, align 1
  call void @_ZN6icu_776number4impl14SimpleModifierC1ERKNS_15SimpleFormatterENS_22FormattedStringBuilder5FieldEb(ptr noundef nonnull align 8 dereferenceable(104) %16, ptr noundef nonnull align 8 dereferenceable(72) %81, i8 %83, i1 noundef zeroext false)
  %84 = load ptr, ptr %9, align 8, !tbaa !80
  %85 = invoke noundef nonnull align 8 dereferenceable(136) ptr @_ZN6icu_7731FormattedValueStringBuilderImpl12getStringRefEv(ptr noundef nonnull align 8 dereferenceable(300) %84)
          to label %86 unwind label %100

86:                                               ; preds = %80
  %87 = load ptr, ptr %9, align 8, !tbaa !80
  %88 = invoke noundef nonnull align 8 dereferenceable(136) ptr @_ZN6icu_7731FormattedValueStringBuilderImpl12getStringRefEv(ptr noundef nonnull align 8 dereferenceable(300) %87)
          to label %89 unwind label %100

89:                                               ; preds = %86
  %90 = invoke noundef i32 @_ZNK6icu_7722FormattedStringBuilder6lengthEv(ptr noundef nonnull align 8 dereferenceable(136) %88)
          to label %91 unwind label %100

91:                                               ; preds = %89
  %92 = load ptr, ptr %10, align 8, !tbaa !22
  %93 = invoke noundef i32 @_ZNK6icu_776number4impl14SimpleModifier20formatAsPrefixSuffixERNS_22FormattedStringBuilderEiiR10UErrorCode(ptr noundef nonnull align 8 dereferenceable(104) %16, ptr noundef nonnull align 8 dereferenceable(136) %85, i32 noundef 0, i32 noundef %90, ptr noundef nonnull align 4 dereferenceable(4) %92)
          to label %94 unwind label %100

94:                                               ; preds = %91
  call void @_ZN6icu_776number4impl14SimpleModifierD2Ev(ptr noundef nonnull align 8 dereferenceable(104) %16) #12
  call void @llvm.lifetime.end.p0(i64 104, ptr %16) #12
  store i32 0, ptr %12, align 4
  br label %95

95:                                               ; preds = %94, %78
  call void @llvm.lifetime.end.p0(i64 8, ptr %15) #12
  br label %96

96:                                               ; preds = %95, %66
  call void @llvm.lifetime.end.p0(i64 4, ptr %14) #12
  call void @llvm.lifetime.end.p0(i64 4, ptr %13) #12
  br label %97

97:                                               ; preds = %96, %46
  call void @llvm.lifetime.end.p0(i64 4, ptr %11) #12
  %98 = load i32, ptr %12, align 4
  switch i32 %98, label %109 [
    i32 0, label %99
    i32 1, label %99
  ]

99:                                               ; preds = %25, %32, %97, %97
  ret void

100:                                              ; preds = %91, %89, %86, %80
  %101 = landingpad { ptr, i32 }
          cleanup
  %102 = extractvalue { ptr, i32 } %101, 0
  store ptr %102, ptr %18, align 8
  %103 = extractvalue { ptr, i32 } %101, 1
  store i32 %103, ptr %19, align 4
  call void @_ZN6icu_776number4impl14SimpleModifierD2Ev(ptr noundef nonnull align 8 dereferenceable(104) %16) #12
  call void @llvm.lifetime.end.p0(i64 104, ptr %16) #12
  call void @llvm.lifetime.end.p0(i64 8, ptr %15) #12
  call void @llvm.lifetime.end.p0(i64 4, ptr %14) #12
  call void @llvm.lifetime.end.p0(i64 4, ptr %13) #12
  call void @llvm.lifetime.end.p0(i64 4, ptr %11) #12
  br label %104

104:                                              ; preds = %100
  %105 = load ptr, ptr %18, align 8
  %106 = load i32, ptr %19, align 4
  %107 = insertvalue { ptr, i32 } poison, ptr %105, 0
  %108 = insertvalue { ptr, i32 } %107, i32 %106, 1
  resume { ptr, i32 } %108

109:                                              ; preds = %97
  unreachable
}