; Function Attrs: mustprogress uwtable
define void @_ZNK6icu_7725RelativeDateTimeFormatter17formatNumericImplEd21URelativeDateTimeUnitRNS_29FormattedRelativeDateTimeDataER10UErrorCode(ptr noundef nonnull readonly align 8 captures(none) dereferenceable(272) %0, double noundef %1, i32 noundef %2, ptr noundef nonnull align 8 dereferenceable(300) %3, ptr noundef nonnull align 4 dereferenceable(4) %4) #1 align 2 personality ptr @__gxx_personality_v0 {
  %6 = alloca i32, align 4
  %7 = alloca %"class.icu_77::number::impl::SimpleModifier", align 8
  %8 = load i32, ptr %4, align 4, !tbaa !13
  %9 = icmp slt i32 %8, 1
  br i1 %9, label %10, label %54

10:                                               ; preds = %5
  %or.cond = icmp ugt i32 %2, 14
  br i1 %or.cond, label %11, label %12

11:                                               ; preds = %10
  store i32 1, ptr %4, align 4, !tbaa !13
  br label %54

12:                                               ; preds = %10
  %.0 = tail call double @llvm.fabs.f64(double %1)
  call void @llvm.lifetime.start.p0(i64 4, ptr nonnull %6) #20
  %13 = getelementptr inbounds nuw i8, ptr %0, i64 16
  %14 = load ptr, ptr %13, align 8, !tbaa !88
  %15 = getelementptr inbounds nuw i8, ptr %14, i64 24
  %16 = load ptr, ptr %15, align 8, !tbaa !82
  %17 = getelementptr inbounds nuw i8, ptr %0, i64 24
  %18 = load ptr, ptr %17, align 8, !tbaa !89
  %19 = getelementptr inbounds nuw i8, ptr %18, i64 24
  %20 = load ptr, ptr %19, align 8, !tbaa !91
  %21 = getelementptr inbounds nuw i8, ptr %3, i64 8
  call void @_ZN6icu_7717QuantityFormatter15formatAndSelectEdRKNS_12NumberFormatERKNS_11PluralRulesERNS_22FormattedStringBuilderERNS_14StandardPlural4FormER10UErrorCode(double noundef %.0, ptr noundef nonnull align 8 dereferenceable(60) %16, ptr noundef nonnull align 8 dereferenceable(28) %20, ptr noundef nonnull align 8 dereferenceable(136) %21, ptr noundef nonnull align 4 dereferenceable(4) %6, ptr noundef nonnull align 4 dereferenceable(4) %4)
  %22 = load i32, ptr %4, align 4, !tbaa !13
  %23 = icmp slt i32 %22, 1
  br i1 %23, label %24, label %53

24:                                               ; preds = %12
  %25 = bitcast double %1 to i64
  %26 = icmp sgt i64 %25, -1
  %27 = getelementptr inbounds nuw i8, ptr %0, i64 8
  %28 = load ptr, ptr %27, align 8, !tbaa !87
  %29 = getelementptr inbounds nuw i8, ptr %0, i64 32
  %30 = load i32, ptr %29, align 8, !tbaa !86
  %31 = load i32, ptr %6, align 4, !tbaa !94
  %32 = getelementptr inbounds nuw i8, ptr %28, i64 17304
  %33 = zext nneg i32 %2 to i64
  %34 = zext i1 %26 to i64
  %35 = getelementptr inbounds nuw i8, ptr %28, i64 23128
  br label %36

36:                                               ; preds = %45, %24
  %.015.i = phi i32 [ %31, %24 ], [ 5, %45 ]
  %37 = sext i32 %.015.i to i64
  br label %38

38:                                               ; preds = %42, %36
  %.014.i = phi i32 [ %30, %36 ], [ %44, %42 ]
  %39 = sext i32 %.014.i to i64
  %40 = getelementptr inbounds [3 x [15 x [2 x [8 x ptr]]]], ptr %32, i64 0, i64 %39, i64 %33, i64 %34, i64 %37
  %41 = load ptr, ptr %40, align 8, !tbaa !30
  %.not.i = icmp eq ptr %41, null
  br i1 %.not.i, label %42, label %_ZNK6icu_7725RelativeDateTimeCacheData32getRelativeDateTimeUnitFormatterEi21URelativeDateTimeUnitii.exit

42:                                               ; preds = %38
  %43 = getelementptr inbounds [3 x i32], ptr %35, i64 0, i64 %39
  %44 = load i32, ptr %43, align 4, !tbaa !12
  %.not20.i = icmp eq i32 %44, -1
  br i1 %.not20.i, label %45, label %38, !llvm.loop !34

45:                                               ; preds = %42
  %46 = icmp eq i32 %.015.i, 5
  br i1 %46, label %47, label %36

47:                                               ; preds = %45
  store i32 3, ptr %4, align 4, !tbaa !13
  br label %53

_ZNK6icu_7725RelativeDateTimeCacheData32getRelativeDateTimeUnitFormatterEi21URelativeDateTimeUnitii.exit: ; preds = %38
  call void @llvm.lifetime.start.p0(i64 104, ptr nonnull %7) #20
  call void @_ZN6icu_776number4impl14SimpleModifierC1ERKNS_15SimpleFormatterENS_22FormattedStringBuilder5FieldEb(ptr noundef nonnull align 8 dereferenceable(104) %7, ptr noundef nonnull align 8 dereferenceable(72) %41, i8 64, i1 noundef zeroext false)
  %48 = invoke noundef i32 @_ZNK6icu_7722FormattedStringBuilder6lengthEv(ptr noundef nonnull align 8 dereferenceable(136) %21)
          to label %49 unwind label %55

49:                                               ; preds = %_ZNK6icu_7725RelativeDateTimeCacheData32getRelativeDateTimeUnitFormatterEi21URelativeDateTimeUnitii.exit
  %50 = invoke noundef i32 @_ZNK6icu_776number4impl14SimpleModifier20formatAsPrefixSuffixERNS_22FormattedStringBuilderEiiR10UErrorCode(ptr noundef nonnull align 8 dereferenceable(104) %7, ptr noundef nonnull align 8 dereferenceable(136) %21, i32 noundef 0, i32 noundef %48, ptr noundef nonnull align 4 dereferenceable(4) %4)
          to label %51 unwind label %55

51:                                               ; preds = %49
  store ptr getelementptr inbounds nuw inrange(-16, 72) (i8, ptr @_ZTVN6icu_776number4impl14SimpleModifierE, i64 16), ptr %7, align 8, !tbaa !15
  %52 = getelementptr inbounds nuw i8, ptr %7, i64 8
  call void @_ZN6icu_7713UnicodeStringD1Ev(ptr noundef nonnull align 8 dereferenceable(64) %52) #20
  call void @_ZN6icu_776number4impl8ModifierD2Ev(ptr noundef nonnull align 8 dereferenceable(104) %7) #20
  call void @llvm.lifetime.end.p0(i64 104, ptr nonnull %7) #20
  br label %53

53:                                               ; preds = %47, %51, %12
  call void @llvm.lifetime.end.p0(i64 4, ptr nonnull %6) #20
  br label %54

54:                                               ; preds = %5, %53, %11
  ret void

55:                                               ; preds = %49, %_ZNK6icu_7725RelativeDateTimeCacheData32getRelativeDateTimeUnitFormatterEi21URelativeDateTimeUnitii.exit
  %56 = landingpad { ptr, i32 }
          cleanup
  store ptr getelementptr inbounds nuw inrange(-16, 72) (i8, ptr @_ZTVN6icu_776number4impl14SimpleModifierE, i64 16), ptr %7, align 8, !tbaa !15
  %57 = getelementptr inbounds nuw i8, ptr %7, i64 8
  call void @_ZN6icu_7713UnicodeStringD1Ev(ptr noundef nonnull align 8 dereferenceable(64) %57) #20
  call void @_ZN6icu_776number4impl8ModifierD2Ev(ptr noundef nonnull align 8 dereferenceable(104) %7) #20
  call void @llvm.lifetime.end.p0(i64 104, ptr nonnull %7) #20
  call void @llvm.lifetime.end.p0(i64 4, ptr nonnull %6) #20
  resume { ptr, i32 } %56
}